c__builtin__
set
p0
((lp1
Vcodgbu1
p2
aVcodgbo6
p3
aVcodgbyo
p4
atp5
Rp6
.c__builtin__
set
p0
((lp1
Vcodgbu1
p2
aVcodgbo6
p3
aVcodgbyo
p4
atp5
Rp6
.c__builtin__
set
p0
((lp1
Vcodgbu1
p2
aVcodgbo6
p3
aVcodgbyo
p4
aVcodzn2z
p5
atp6
Rp7
.c__builtin__
set
p0
((lp1
Vcodgbu1
p2
aVcodgbo6
p3
aVcodgbyo
p4
atp5
Rp6
.c__builtin__
set
p0
((lp1
Vcodgbu1
p2
aVcodgbo6
p3
aVcodgbyo
p4
aVcoe07rc
p5
atp6
Rp7
.c__builtin__
set
p0
((lp1
Vcodgbu1
p2
aVcodgbo6
p3
aVcodgbyo
p4
aVcoe07rc
p5
aVcoe08zu
p6
atp7
Rp8
.c__builtin__
set
p0
((lp1
Vcodgbu1
p2
aVcodgbo6
p3
aVcodgbyo
p4
aVcoe07rc
p5
aVcoe08zu
p6
atp7
Rp8
.c__builtin__
set
p0
((lp1
Vcodgbu1
p2
aVcodgbo6
p3
aVcodgbyo
p4
aVcoe07rc
p5
aVcoe08zu
p6
atp7
Rp8
.c__builtin__
set
p0
((lp1
Vcodgbu1
p2
aVcodgbo6
p3
aVcodgbyo
p4
aVcoe07rc
p5
aVcoe08zu
p6
atp7
Rp8
.c__builtin__
set
p0
((lp1
Vcodgbu1
p2
aVcodgbo6
p3
aVcodgbyo
p4
aVcoe07rc
p5
aVcoe08zu
p6
atp7
Rp8
.